target datalayout = "e-m:e-p270:32:32-p271:32:32-p272:64:64-i64:64-i128:128-f80:128-n8:16:32:64-S128"
target triple = "x86_64-pc-linux-gnu"

%struct.ossl_param_st = type { ptr, i32, ptr, i64, i64 }

@.str = private unnamed_addr constant [36 x i8] c"../openssl/crypto/param_build_set.c\00", align 1
@__func__.ossl_param_build_set_bn_pad = private unnamed_addr constant [28 x i8] c"ossl_param_build_set_bn_pad\00", align 1

; Function Attrs: nounwind uwtable
define i32 @ossl_param_build_set_bn_pad(ptr noundef %0, ptr noundef %1, ptr noundef %2, ptr noundef %3, i64 noundef %4) #0 {
  %6 = alloca i32, align 4
  %7 = alloca ptr, align 8
  %8 = alloca ptr, align 8
  %9 = alloca ptr, align 8
  %10 = alloca ptr, align 8
  %11 = alloca i64, align 8
  store ptr %0, ptr %7, align 8, !tbaa !3
  store ptr %1, ptr %8, align 8, !tbaa !8
  store ptr %2, ptr %9, align 8, !tbaa !10
  store ptr %3, ptr %10, align 8, !tbaa !16
  store i64 %4, ptr %11, align 8, !tbaa !14
  %12 = load ptr, ptr %7, align 8, !tbaa !3
  %13 = icmp ne ptr %12, null
  br i1 %13, label %14, label %20

14:                                               ; preds = %5
  %15 = load ptr, ptr %7, align 8, !tbaa !3
  %16 = load ptr, ptr %9, align 8, !tbaa !10
  %17 = load ptr, ptr %10, align 8, !tbaa !16
  %18 = load i64, ptr %11, align 8, !tbaa !14
  %19 = call i32 @OSSL_PARAM_BLD_push_BN_pad(ptr noundef %15, ptr noundef %16, ptr noundef %17, i64 noundef %18)
  store i32 %19, ptr %6, align 4
  br label %41

20:                                               ; preds = %5
  %21 = load ptr, ptr %8, align 8, !tbaa !8
  %22 = load ptr, ptr %9, align 8, !tbaa !10
  %23 = call ptr @OSSL_PARAM_locate(ptr noundef %21, ptr noundef %22)
  store ptr %23, ptr %8, align 8, !tbaa !8
  %24 = load ptr, ptr %8, align 8, !tbaa !8
  %25 = icmp ne ptr %24, null
  br i1 %25, label %26, label %40

26:                                               ; preds = %20
  %27 = load i64, ptr %11, align 8, !tbaa !14
  %28 = load ptr, ptr %8, align 8, !tbaa !8
  %29 = getelementptr inbounds nuw %struct.ossl_param_st, ptr %28, i32 0, i32 3
  %30 = load i64, ptr %29, align 8, !tbaa !18
  %31 = icmp ugt i64 %27, %30
  br i1 %31, label %32, label %33

32:                                               ; preds = %26
  call void @ERR_new()
  call void @ERR_set_debug(ptr noundef @.str, i32 noundef 77, ptr noundef @__func__.ossl_param_build_set_bn_pad)
  call void (i32, i32, ptr, ...) @ERR_set_error(i32 noundef 15, i32 noundef 116, ptr noundef null)
  store i32 0, ptr %6, align 4
  br label %41

33:                                               ; preds = %26
  %34 = load i64, ptr %11, align 8, !tbaa !14
  %35 = load ptr, ptr %8, align 8, !tbaa !8
  %36 = getelementptr inbounds nuw %struct.ossl_param_st, ptr %35, i32 0, i32 3
  store i64 %34, ptr %36, align 8, !tbaa !18
  %37 = load ptr, ptr %8, align 8, !tbaa !8
  %38 = load ptr, ptr %10, align 8, !tbaa !16
  %39 = call i32 @OSSL_PARAM_set_BN(ptr noundef %37, ptr noundef %38)
  store i32 %39, ptr %6, align 4
  br label %41

40:                                               ; preds = %20
  store i32 1, ptr %6, align 4
  br label %41

41:                                               ; preds = %40, %33, %32, %14
  %42 = load i32, ptr %6, align 4
  ret i32 %42
}