; Function Attrs: nounwind uwtable
define i32 @ossl_param_build_set_bn_pad(ptr noundef %0, ptr noundef %1, ptr noundef %2, ptr noundef %3, i64 noundef %4) local_unnamed_addr #0 {
  %.not = icmp eq ptr %0, null
  br i1 %.not, label %8, label %6

6:                                                ; preds = %5
  %7 = tail call i32 @OSSL_PARAM_BLD_push_BN_pad(ptr noundef nonnull %0, ptr noundef %2, ptr noundef %3, i64 noundef %4) #2
  br label %17

8:                                                ; preds = %5
  %9 = tail call ptr @OSSL_PARAM_locate(ptr noundef %1, ptr noundef %2) #2
  %.not17 = icmp eq ptr %9, null
  br i1 %.not17, label %17, label %10

10:                                               ; preds = %8
  %11 = getelementptr inbounds nuw i8, ptr %9, i64 24
  %12 = load i64, ptr %11, align 8, !tbaa !3
  %13 = icmp ugt i64 %4, %12
  br i1 %13, label %14, label %15

14:                                               ; preds = %10
  tail call void @ERR_new() #2
  tail call void @ERR_set_debug(ptr noundef nonnull @.str, i32 noundef 77, ptr noundef nonnull @__func__.ossl_param_build_set_bn_pad) #2
  tail call void (i32, i32, ptr, ...) @ERR_set_error(i32 noundef 15, i32 noundef 116, ptr noundef null) #2
  br label %17

15:                                               ; preds = %10
  store i64 %4, ptr %11, align 8, !tbaa !3
  %16 = tail call i32 @OSSL_PARAM_set_BN(ptr noundef nonnull %9, ptr noundef %3) #2
  br label %17

17:                                               ; preds = %8, %15, %14, %6
  %.0 = phi i32 [ %7, %6 ], [ 0, %14 ], [ %16, %15 ], [ 1, %8 ]
  ret i32 %.0
}